Certificate:
    Data:
        Version: 3 (0x2)
        Serial Number: 1 (0x1)
    Signature Algorithm: ecdsa-with-SHA256
        Issuer: C=CN, ST=Beijing, L=Beijing, O=PKU, OU=Infosec
        Validity
            Not Before: Oct 11 04:07:34 2015 GMT
            Not After : Oct 10 04:07:34 2016 GMT
        Subject: C=CN, ST=Beijing, O=PKU, OU=Infosec, CN=hello
        Subject Public Key Info:
            Public Key Algorithm: id-ecPublicKey
                Public-Key: (256 bit)
                pub: 
                    04:25:2f:45:5b:29:97:d9:34:c3:61:ba:d4:f9:b6:
                    82:3e:ea:73:17:d1:e9:65:2f:c0:70:20:e6:a5:4b:
                    d2:af:94:7e:18:c6:5f:d5:42:fb:34:22:a2:46:8e:
                    61:a6:03:15:8f:ca:c1:6f:6e:e1:21:02:88:59:8e:
                    9a:26:9b:e0:92
                ASN1 OID: sm2p256v1
        X509v3 extensions:
            X509v3 Basic Constraints: 
                CA:FALSE
            Netscape Comment: 
                OpenSSL Generated Certificate
            X509v3 Subject Key Identifier: 
                D4:BF:9A:51:35:10:6F:55:6F:6F:97:22:57:3D:27:BC:0D:A7:93:1B
            X509v3 Authority Key Identifier: 
                keyid:96:6F:A7:34:97:51:22:4E:23:79:A9:14:91:76:A3:DA:A1:1D:C4:7A

    Signature Algorithm: ecdsa-with-SHA256
         30:45:02:20:3f:42:fe:9d:98:90:ba:a8:e8:92:27:33:0e:6d:
         94:b5:f2:0a:79:08:46:84:2c:e9:e6:c5:ac:a7:49:ca:cc:58:
         02:21:00:f7:39:b5:bb:e7:8f:c1:ae:91:4a:4a:03:01:f8:79:
         cb:a0:1f:39:74:15:4c:55:ce:99:a9:33:8a:0b:52:06:ca
-----BEGIN CERTIFICATE-----
MIICCjCCAbCgAwIBAgIBATAKBggqhkjOPQQDAjBRMQswCQYDVQQGEwJDTjEQMA4G
A1UECAwHQmVpamluZzEQMA4GA1UEBwwHQmVpamluZzEMMAoGA1UECgwDUEtVMRAw
DgYDVQQLDAdJbmZvc2VjMB4XDTE1MTAxMTA0MDczNFoXDTE2MTAxMDA0MDczNFow
TzELMAkGA1UEBhMCQ04xEDAOBgNVBAgMB0JlaWppbmcxDDAKBgNVBAoMA1BLVTEQ
MA4GA1UECwwHSW5mb3NlYzEOMAwGA1UEAwwFaGVsbG8wWTATBgcqhkjOPQIBBggq
gRzPVQGCLQNCAAQlL0VbKZfZNMNhutT5toI+6nMX0ellL8BwIOalS9KvlH4Yxl/V
Qvs0IqJGjmGmAxWPysFvbuEhAohZjpomm+CSo3sweTAJBgNVHRMEAjAAMCwGCWCG
SAGG+EIBDQQfFh1PcGVuU1NMIEdlbmVyYXRlZCBDZXJ0aWZpY2F0ZTAdBgNVHQ4E
FgQU1L+aUTUQb1Vvb5ciVz0nvA2nkxswHwYDVR0jBBgwFoAUlm+nNJdRIk4jeakU
kXaj2qEdxHowCgYIKoZIzj0EAwIDSAAwRQIgP0L+nZiQuqjokiczDm2UtfIKeQhG
hCzp5sWsp0nKzFgCIQD3ObW754/BrpFKSgMB+HnLoB85dBVMVc6ZqTOKC1IGyg==
-----END CERTIFICATE-----
