Certificate:
    Data:
        Version: 3 (0x2)
        Serial Number: 2 (0x2)
    Signature Algorithm: ecdsa-with-SHA256
        Issuer: C=CN, ST=Beijing, L=Beijing, O=PKU, OU=Infosec
        Validity
            Not Before: Oct 11 04:08:28 2015 GMT
            Not After : Oct 10 04:08:28 2016 GMT
        Subject: C=CN, ST=Beijing, O=PKU, OU=Infosec, CN=guanzhi
        Subject Public Key Info:
            Public Key Algorithm: id-ecPublicKey
                Public-Key: (256 bit)
                pub: 
                    04:a6:e8:13:83:f0:02:f1:aa:e4:1b:23:ca:d6:fa:
                    e9:12:46:e8:68:42:99:6c:a2:92:1d:c1:e4:d2:27:
                    47:4a:1e:4c:90:89:0a:87:a8:5a:dd:36:2c:c7:4a:
                    6c:70:cb:33:ab:a7:af:82:ad:a3:d6:47:79:c3:f5:
                    cd:bd:a3:fd:39
                ASN1 OID: sm2p256v1
        X509v3 extensions:
            X509v3 Basic Constraints: 
                CA:FALSE
            Netscape Comment: 
                OpenSSL Generated Certificate
            X509v3 Subject Key Identifier: 
                E2:1B:90:77:8E:B3:22:7C:C2:B7:06:0C:24:DF:38:8B:57:27:11:4C
            X509v3 Authority Key Identifier: 
                keyid:96:6F:A7:34:97:51:22:4E:23:79:A9:14:91:76:A3:DA:A1:1D:C4:7A

    Signature Algorithm: ecdsa-with-SHA256
         30:46:02:21:00:d8:7c:52:ed:91:31:95:9a:ba:d1:cd:39:60:
         19:44:96:21:89:07:b8:88:3d:1b:e2:2b:b0:f5:85:30:c5:f8:
         7e:02:21:00:c2:5b:65:84:ab:bd:b3:0a:2f:89:9e:e6:69:f3:
         f7:ba:79:67:38:1d:4e:0f:55:4b:13:69:a5:e6:7a:7a:f0:8f
-----BEGIN CERTIFICATE-----
MIICDTCCAbKgAwIBAgIBAjAKBggqhkjOPQQDAjBRMQswCQYDVQQGEwJDTjEQMA4G
A1UECAwHQmVpamluZzEQMA4GA1UEBwwHQmVpamluZzEMMAoGA1UECgwDUEtVMRAw
DgYDVQQLDAdJbmZvc2VjMB4XDTE1MTAxMTA0MDgyOFoXDTE2MTAxMDA0MDgyOFow
UTELMAkGA1UEBhMCQ04xEDAOBgNVBAgMB0JlaWppbmcxDDAKBgNVBAoMA1BLVTEQ
MA4GA1UECwwHSW5mb3NlYzEQMA4GA1UEAwwHZ3VhbnpoaTBZMBMGByqGSM49AgEG
CCqBHM9VAYItA0IABKboE4PwAvGq5Bsjytb66RJG6GhCmWyikh3B5NInR0oeTJCJ
CoeoWt02LMdKbHDLM6unr4Kto9ZHecP1zb2j/TmjezB5MAkGA1UdEwQCMAAwLAYJ
YIZIAYb4QgENBB8WHU9wZW5TU0wgR2VuZXJhdGVkIENlcnRpZmljYXRlMB0GA1Ud
DgQWBBTiG5B3jrMifMK3Bgwk3ziLVycRTDAfBgNVHSMEGDAWgBSWb6c0l1EiTiN5
qRSRdqPaoR3EejAKBggqhkjOPQQDAgNJADBGAiEA2HxS7ZExlZq60c05YBlEliGJ
B7iIPRviK7D1hTDF+H4CIQDCW2WEq72zCi+JnuZp8/e6eWc4HU4PVUsTaaXmenrw
jw==
-----END CERTIFICATE-----
